; Function Attrs: mustprogress nounwind uwtable
define dso_local void @_ZN4node9inspector8protocol10NodeWorker14DispatcherImpl7disableEiRKNSt7__cxx1112basic_stringIcSt11char_traitsIcESaIcEEESB_St10unique_ptrINS1_15DictionaryValueESt14default_deleteISD_EEPNS1_12ErrorSupportE(ptr noundef nonnull align 8 dereferenceable(192) %this, i32 noundef %callId, ptr noundef nonnull align 8 dereferenceable(32) %method, ptr noundef nonnull align 8 dereferenceable(32) %message, ptr nocapture readnone %requestMessageObject, ptr nocapture readnone %errors) #0 align 2 {
entry:
  %weak = alloca %"class.std::unique_ptr.132", align 8
  %response = alloca %"class.node::inspector::protocol::DispatchResponse", align 8
  call void @_ZN4node9inspector8protocol14DispatcherBase7weakPtrEv(ptr nonnull sret(%"class.std::unique_ptr.132") align 8 %weak, ptr noundef nonnull align 8 dereferenceable(72) %this) #11
  %m_backend = getelementptr inbounds i8, ptr %this, i64 184
  %0 = load ptr, ptr %m_backend, align 8
  %vtable = load ptr, ptr %0, align 8
  %vfn = getelementptr inbounds i8, ptr %vtable, i64 32
  %1 = load ptr, ptr %vfn, align 8
  call void %1(ptr nonnull sret(%"class.node::inspector::protocol::DispatchResponse") align 8 %response, ptr noundef nonnull align 8 dereferenceable(8) %0) #11
  %2 = load i32, ptr %response, align 8
  %cmp = icmp eq i32 %2, 2
  br i1 %cmp, label %if.then, label %if.end

if.then:                                          ; preds = %entry
  %m_frontendChannel.i = getelementptr inbounds i8, ptr %this, i64 8
  %3 = load ptr, ptr %m_frontendChannel.i, align 8
  %vtable3 = load ptr, ptr %3, align 8
  %vfn4 = getelementptr inbounds i8, ptr %vtable3, i64 32
  %4 = load ptr, ptr %vfn4, align 8
  call void %4(ptr noundef nonnull align 8 dereferenceable(8) %3, i32 noundef %callId, ptr noundef nonnull align 8 dereferenceable(32) %method, ptr noundef nonnull align 8 dereferenceable(32) %message) #11
  br label %cleanup

if.end:                                           ; preds = %entry
  %5 = load ptr, ptr %weak, align 8
  %6 = load ptr, ptr %5, align 8
  %tobool.not = icmp eq ptr %6, null
  br i1 %tobool.not, label %cleanup, label %if.then7

if.then7:                                         ; preds = %if.end
  call void @_ZN4node9inspector8protocol14DispatcherBase12sendResponseEiRKNS1_16DispatchResponseE(ptr noundef nonnull align 8 dereferenceable(72) %6, i32 noundef %callId, ptr noundef nonnull align 8 dereferenceable(44) %response) #11
  br label %cleanup

cleanup:                                          ; preds = %if.end, %if.then7, %if.then
  %m_errorMessage.i = getelementptr inbounds i8, ptr %response, i64 8
  call void @_ZNSt7__cxx1112basic_stringIcSt11char_traitsIcESaIcEED1Ev(ptr noundef nonnull align 8 dereferenceable(32) %m_errorMessage.i) #11
  %7 = load ptr, ptr %weak, align 8
  %cmp.not.i = icmp eq ptr %7, null
  br i1 %cmp.not.i, label %_ZNSt10unique_ptrIN4node9inspector8protocol14DispatcherBase7WeakPtrESt14default_deleteIS4_EED2Ev.exit, label %_ZNKSt14default_deleteIN4node9inspector8protocol14DispatcherBase7WeakPtrEEclEPS4_.exit.i

_ZNKSt14default_deleteIN4node9inspector8protocol14DispatcherBase7WeakPtrEEclEPS4_.exit.i: ; preds = %cleanup
  call void @_ZN4node9inspector8protocol14DispatcherBase7WeakPtrD1Ev(ptr noundef nonnull align 8 dereferenceable(8) %7) #11
  call void @_ZdlPv(ptr noundef nonnull %7) #13
  br label %_ZNSt10unique_ptrIN4node9inspector8protocol14DispatcherBase7WeakPtrESt14default_deleteIS4_EED2Ev.exit

_ZNSt10unique_ptrIN4node9inspector8protocol14DispatcherBase7WeakPtrESt14default_deleteIS4_EED2Ev.exit: ; preds = %cleanup, %_ZNKSt14default_deleteIN4node9inspector8protocol14DispatcherBase7WeakPtrEEclEPS4_.exit.i
  ret void
}